; ModuleID = '1/770.cpp'
source_filename = "1/770.cpp"
target datalayout = "e-m:e-p270:32:32-p271:32:32-p272:64:64-i64:64-f80:128-n8:16:32:64-S128"
target triple = "x86_64-pc-linux-gnu"

%"class.std::ios_base::Init" = type { i8 }
%"class.std::basic_istream" = type { i32 (...)**, i64, %"class.std::basic_ios" }
%"class.std::basic_ios" = type { %"class.std::ios_base", %"class.std::basic_ostream"*, i8, i8, %"class.std::basic_streambuf"*, %"class.std::ctype"*, %"class.std::num_put"*, %"class.std::num_get"* }
%"class.std::ios_base" = type { i32 (...)**, i64, i64, i32, i32, i32, %"struct.std::ios_base::_Callback_list"*, %"struct.std::ios_base::_Words", [8 x %"struct.std::ios_base::_Words"], i32, %"struct.std::ios_base::_Words"*, %"class.std::locale" }
%"struct.std::ios_base::_Callback_list" = type { %"struct.std::ios_base::_Callback_list"*, void (i32, %"class.std::ios_base"*, i32)*, i32, i32 }
%"struct.std::ios_base::_Words" = type { i8*, i64 }
%"class.std::locale" = type { %"class.std::locale::_Impl"* }
%"class.std::locale::_Impl" = type { i32, %"class.std::locale::facet"**, i64, %"class.std::locale::facet"**, i8** }
%"class.std::locale::facet" = type <{ i32 (...)**, i32, [4 x i8] }>
%"class.std::basic_ostream" = type { i32 (...)**, %"class.std::basic_ios" }
%"class.std::basic_streambuf" = type { i32 (...)**, i8*, i8*, i8*, i8*, i8*, i8*, %"class.std::locale" }
%"class.std::ctype" = type <{ %"class.std::locale::facet.base", [4 x i8], %struct.__locale_struct*, i8, [7 x i8], i32*, i32*, i16*, i8, [256 x i8], [256 x i8], i8, [6 x i8] }>
%"class.std::locale::facet.base" = type <{ i32 (...)**, i32 }>
%struct.__locale_struct = type { [13 x %struct.__locale_data*], i16*, i32*, i32*, [13 x i8*] }
%struct.__locale_data = type opaque
%"class.std::num_put" = type { %"class.std::locale::facet.base", [4 x i8] }
%"class.std::num_get" = type { %"class.std::locale::facet.base", [4 x i8] }

$_ZSt4sqrtIiEN9__gnu_cxx11__enable_ifIXsr12__is_integerIT_EE7__valueEdE6__typeES2_ = comdat any

@_ZStL8__ioinit = internal global %"class.std::ios_base::Init" zeroinitializer, align 1
@__dso_handle = external hidden global i8
@counts = dso_local global i32 1, align 4
@_ZSt3cin = external dso_local global %"class.std::basic_istream", align 8
@_ZSt4cout = external dso_local global %"class.std::basic_ostream", align 8
@llvm.global_ctors = appending global [1 x { i32, void ()*, i8* }] [{ i32, void ()*, i8* } { i32 65535, void ()* @_GLOBAL__sub_I_770.cpp, i8* null }]

; Function Attrs: noinline uwtable
define internal void @__cxx_global_var_init() #0 section ".text.startup" {
  call void @_ZNSt8ios_base4InitC1Ev(%"class.std::ios_base::Init"* @_ZStL8__ioinit)
  %1 = call i32 @__cxa_atexit(void (i8*)* bitcast (void (%"class.std::ios_base::Init"*)* @_ZNSt8ios_base4InitD1Ev to void (i8*)*), i8* getelementptr inbounds (%"class.std::ios_base::Init", %"class.std::ios_base::Init"* @_ZStL8__ioinit, i32 0, i32 0), i8* @__dso_handle) #3
  ret void
}

declare dso_local void @_ZNSt8ios_base4InitC1Ev(%"class.std::ios_base::Init"*) unnamed_addr #1

; Function Attrs: nounwind
declare dso_local void @_ZNSt8ios_base4InitD1Ev(%"class.std::ios_base::Init"*) unnamed_addr #2

; Function Attrs: nounwind
declare dso_local i32 @__cxa_atexit(void (i8*)*, i8*, i8*) #3

; Function Attrs: noinline norecurse uwtable
define dso_local i32 @main() #4 {
  %1 = alloca i32, align 4
  %2 = alloca i32, align 4
  %3 = alloca i32, align 4
  %4 = alloca i32, align 4
  %5 = alloca i32, align 4
  store i32 0, i32* %1, align 4
  %6 = call dereferenceable(280) %"class.std::basic_istream"* @_ZNSirsERi(%"class.std::basic_istream"* @_ZSt3cin, i32* dereferenceable(4) %3)
  store i32 1, i32* %2, align 4
  br label %7

7:                                                ; preds = %18, %0
  %8 = load i32, i32* %2, align 4
  %9 = load i32, i32* %3, align 4
  %10 = icmp sle i32 %8, %9
  br i1 %10, label %11, label %21

11:                                               ; preds = %7
  %12 = call dereferenceable(280) %"class.std::basic_istream"* @_ZNSirsERi(%"class.std::basic_istream"* @_ZSt3cin, i32* dereferenceable(4) %4)
  store i32 1, i32* @counts, align 4
  %13 = load i32, i32* %4, align 4
  %14 = call i32 @_Z2tyii(i32 %13, i32 2)
  store i32 %14, i32* %5, align 4
  %15 = load i32, i32* %5, align 4
  %16 = call dereferenceable(272) %"class.std::basic_ostream"* @_ZNSolsEi(%"class.std::basic_ostream"* @_ZSt4cout, i32 %15)
  %17 = call dereferenceable(272) %"class.std::basic_ostream"* @_ZNSolsEPFRSoS_E(%"class.std::basic_ostream"* %16, %"class.std::basic_ostream"* (%"class.std::basic_ostream"*)* @_ZSt4endlIcSt11char_traitsIcEERSt13basic_ostreamIT_T0_ES6_)
  br label %18

18:                                               ; preds = %11
  %19 = load i32, i32* %2, align 4
  %20 = add nsw i32 %19, 1
  store i32 %20, i32* %2, align 4
  br label %7

21:                                               ; preds = %7
  ret i32 0
}

declare dso_local dereferenceable(280) %"class.std::basic_istream"* @_ZNSirsERi(%"class.std::basic_istream"*, i32* dereferenceable(4)) #1

; Function Attrs: noinline uwtable
define dso_local i32 @_Z2tyii(i32 %0, i32 %1) #0 {
  %3 = alloca i32, align 4
  %4 = alloca i32, align 4
  %5 = alloca i32, align 4
  %6 = alloca i32, align 4
  %7 = alloca i32, align 4
  store i32 %0, i32* %4, align 4
  store i32 %1, i32* %5, align 4
  store i32 0, i32* %7, align 4
  %8 = load i32, i32* %4, align 4
  %9 = icmp eq i32 %8, 1
  br i1 %9, label %10, label %11

10:                                               ; preds = %2
  store i32 0, i32* %3, align 4
  br label %42

11:                                               ; preds = %2
  %12 = load i32, i32* %4, align 4
  %13 = icmp eq i32 %12, 2
  br i1 %13, label %14, label %15

14:                                               ; preds = %11
  store i32 1, i32* %3, align 4
  br label %42

15:                                               ; preds = %11
  %16 = load i32, i32* %5, align 4
  store i32 %16, i32* %6, align 4
  br label %17

17:                                               ; preds = %37, %15
  %18 = load i32, i32* %6, align 4
  %19 = load i32, i32* %4, align 4
  %20 = call double @_ZSt4sqrtIiEN9__gnu_cxx11__enable_ifIXsr12__is_integerIT_EE7__valueEdE6__typeES2_(i32 %19)
  %21 = fptosi double %20 to i32
  %22 = icmp sle i32 %18, %21
  br i1 %22, label %23, label %40

23:                                               ; preds = %17
  %24 = load i32, i32* %4, align 4
  %25 = load i32, i32* %6, align 4
  %26 = srem i32 %24, %25
  %27 = icmp eq i32 %26, 0
  br i1 %27, label %28, label %36

28:                                               ; preds = %23
  %29 = load i32, i32* @counts, align 4
  %30 = add nsw i32 %29, 1
  store i32 %30, i32* @counts, align 4
  %31 = load i32, i32* %4, align 4
  %32 = load i32, i32* %6, align 4
  %33 = sdiv i32 %31, %32
  %34 = load i32, i32* %6, align 4
  %35 = call i32 @_Z2tyii(i32 %33, i32 %34)
  br label %36

36:                                               ; preds = %28, %23
  br label %37

37:                                               ; preds = %36
  %38 = load i32, i32* %6, align 4
  %39 = add nsw i32 %38, 1
  store i32 %39, i32* %6, align 4
  br label %17

40:                                               ; preds = %17
  %41 = load i32, i32* @counts, align 4
  store i32 %41, i32* %3, align 4
  br label %42

42:                                               ; preds = %40, %14, %10
  %43 = load i32, i32* %3, align 4
  ret i32 %43
}

declare dso_local dereferenceable(272) %"class.std::basic_ostream"* @_ZNSolsEi(%"class.std::basic_ostream"*, i32) #1

declare dso_local dereferenceable(272) %"class.std::basic_ostream"* @_ZNSolsEPFRSoS_E(%"class.std::basic_ostream"*, %"class.std::basic_ostream"* (%"class.std::basic_ostream"*)*) #1

declare dso_local dereferenceable(272) %"class.std::basic_ostream"* @_ZSt4endlIcSt11char_traitsIcEERSt13basic_ostreamIT_T0_ES6_(%"class.std::basic_ostream"* dereferenceable(272)) #1

; Function Attrs: noinline nounwind uwtable
define linkonce_odr dso_local double @_ZSt4sqrtIiEN9__gnu_cxx11__enable_ifIXsr12__is_integerIT_EE7__valueEdE6__typeES2_(i32 %0) #5 comdat {
  %2 = alloca i32, align 4
  store i32 %0, i32* %2, align 4
  %3 = load i32, i32* %2, align 4
  %4 = sitofp i32 %3 to double
  %5 = call double @sqrt(double %4) #3
  ret double %5
}

; Function Attrs: nounwind
declare dso_local double @sqrt(double) #2

; Function Attrs: noinline uwtable
define internal void @_GLOBAL__sub_I_770.cpp() #0 section ".text.startup" {
  call void @__cxx_global_var_init()
  ret void
}


!llvm.module.flags = !{!0}
!llvm.ident = !{!1}

!0 = !{i32 1, !"wchar_size", i32 4}
!1 = !{!"clang version 10.0.0-4ubuntu1 "}
